target datalayout = "e-m:e-p270:32:32-p271:32:32-p272:64:64-i64:64-i128:128-f80:128-n8:16:32:64-S128"
target triple = "x86_64-pc-linux-gnu"

%"class.open3d::geometry::KDTreeFlann" = type { %"class.Eigen::Matrix", %"class.std::unique_ptr" }
%"class.Eigen::Matrix" = type { %"class.Eigen::PlainObjectBase" }
%"class.Eigen::PlainObjectBase" = type { %"class.Eigen::DenseStorage" }
%"class.Eigen::DenseStorage" = type { ptr, i64, i64 }
%"class.std::unique_ptr" = type { %"struct.std::__uniq_ptr_data" }
%"struct.std::__uniq_ptr_data" = type { %"class.std::__uniq_ptr_impl" }
%"class.std::__uniq_ptr_impl" = type { %"class.std::tuple" }
%"class.std::tuple" = type { %"struct.std::_Tuple_impl" }
%"struct.std::_Tuple_impl" = type { %"struct.std::_Head_base.4" }
%"struct.std::_Head_base.4" = type { ptr }

; Function Attrs: mustprogress nounwind ssp uwtable
define linkonce_odr noundef nonnull align 1 dereferenceable(1) ptr @_ZNSt10_Head_baseILm1ESt14default_deleteIN9nanoflann24KDTreeEigenMatrixAdaptorIKN5Eigen6MatrixIdLin1ELin1ELi0ELin1ELin1EEELin1ENS1_9metric_L2ELb0EEEELb1EE7_M_headERSA_(ptr noundef nonnull align 1 dereferenceable(1) %0) #1 comdat align 2 {
  %2 = alloca ptr, align 8
  store ptr %0, ptr %2, align 8, !tbaa !290
  %3 = load ptr, ptr %2, align 8, !tbaa !290
  ret ptr %3
}

; Function Attrs: mustprogress nounwind ssp uwtable
define linkonce_odr noundef nonnull align 1 dereferenceable(1) ptr @_ZNSt11_Tuple_implILm1EJSt14default_deleteIN9nanoflann24KDTreeEigenMatrixAdaptorIKN5Eigen6MatrixIdLin1ELin1ELi0ELin1ELin1EEELin1ENS1_9metric_L2ELb0EEEEEE7_M_headERSA_(ptr noundef nonnull align 1 dereferenceable(1) %0) #1 comdat align 2 {
  %2 = alloca ptr, align 8
  store ptr %0, ptr %2, align 8, !tbaa !286
  %3 = load ptr, ptr %2, align 8, !tbaa !286
  %4 = call noundef nonnull align 1 dereferenceable(1) ptr @_ZNSt10_Head_baseILm1ESt14default_deleteIN9nanoflann24KDTreeEigenMatrixAdaptorIKN5Eigen6MatrixIdLin1ELin1ELi0ELin1ELin1EEELin1ENS1_9metric_L2ELb0EEEELb1EE7_M_headERSA_(ptr noundef nonnull align 1 dereferenceable(1) %3) #28
  ret ptr %4
}

; Function Attrs: mustprogress nounwind ssp uwtable
define linkonce_odr noundef nonnull align 8 dereferenceable(8) ptr @_ZNSt10_Head_baseILm0EPN9nanoflann24KDTreeEigenMatrixAdaptorIKN5Eigen6MatrixIdLin1ELin1ELi0ELin1ELin1EEELin1ENS0_9metric_L2ELb0EEELb0EE7_M_headERS9_(ptr noundef nonnull align 8 dereferenceable(8) %0) #1 comdat align 2 {
  %2 = alloca ptr, align 8
  store ptr %0, ptr %2, align 8, !tbaa !136
  %3 = load ptr, ptr %2, align 8, !tbaa !136
  %4 = getelementptr inbounds nuw %"struct.std::_Head_base.4", ptr %3, i32 0, i32 0
  ret ptr %4
}

; Function Attrs: inlinehint mustprogress nounwind ssp uwtable
define linkonce_odr void @_ZN5Eigen8internal12aligned_freeEPv(ptr noundef %0) #4 comdat {
  %2 = alloca ptr, align 8
  store ptr %0, ptr %2, align 8, !tbaa !106
  %3 = load ptr, ptr %2, align 8, !tbaa !106
  call void @free(ptr noundef %3) #28
  ret void
}

; Function Attrs: mustprogress nounwind ssp uwtable
define linkonce_odr noundef nonnull align 1 dereferenceable(1) ptr @_ZSt12__get_helperILm1ESt14default_deleteIN9nanoflann24KDTreeEigenMatrixAdaptorIKN5Eigen6MatrixIdLin1ELin1ELi0ELin1ELin1EEELin1ENS1_9metric_L2ELb0EEEEJEERT0_RSt11_Tuple_implIXT_EJSA_DpT1_EE(ptr noundef nonnull align 1 dereferenceable(1) %0) #1 comdat {
  %2 = alloca ptr, align 8
  store ptr %0, ptr %2, align 8, !tbaa !286
  %3 = load ptr, ptr %2, align 8, !tbaa !286
  %4 = call noundef nonnull align 1 dereferenceable(1) ptr @_ZNSt11_Tuple_implILm1EJSt14default_deleteIN9nanoflann24KDTreeEigenMatrixAdaptorIKN5Eigen6MatrixIdLin1ELin1ELi0ELin1ELin1EEELin1ENS1_9metric_L2ELb0EEEEEE7_M_headERSA_(ptr noundef nonnull align 1 dereferenceable(1) %3) #28
  ret ptr %4
}

; Function Attrs: mustprogress nounwind ssp uwtable
define linkonce_odr noundef nonnull align 8 dereferenceable(8) ptr @_ZNSt11_Tuple_implILm0EJPN9nanoflann24KDTreeEigenMatrixAdaptorIKN5Eigen6MatrixIdLin1ELin1ELi0ELin1ELin1EEELin1ENS0_9metric_L2ELb0EEESt14default_deleteIS7_EEE7_M_headERSB_(ptr noundef nonnull align 8 dereferenceable(8) %0) #1 comdat align 2 {
  %2 = alloca ptr, align 8
  store ptr %0, ptr %2, align 8, !tbaa !134
  %3 = load ptr, ptr %2, align 8, !tbaa !134
  %4 = call noundef nonnull align 8 dereferenceable(8) ptr @_ZNSt10_Head_baseILm0EPN9nanoflann24KDTreeEigenMatrixAdaptorIKN5Eigen6MatrixIdLin1ELin1ELi0ELin1ELin1EEELin1ENS0_9metric_L2ELb0EEELb0EE7_M_headERS9_(ptr noundef nonnull align 8 dereferenceable(8) %3) #28
  ret ptr %4
}

; Function Attrs: inlinehint mustprogress ssp uwtable
define linkonce_odr void @_ZN5Eigen8internal24conditional_aligned_freeILb1EEEvPv(ptr noundef %0) #6 comdat {
  %2 = alloca ptr, align 8
  store ptr %0, ptr %2, align 8, !tbaa !106
  %3 = load ptr, ptr %2, align 8, !tbaa !106
  call void @_ZN5Eigen8internal12aligned_freeEPv(ptr noundef %3)
  ret void
}

; Function Attrs: mustprogress nounwind ssp uwtable
define linkonce_odr noundef nonnull align 1 dereferenceable(1) ptr @_ZSt3getILm1EJPN9nanoflann24KDTreeEigenMatrixAdaptorIKN5Eigen6MatrixIdLin1ELin1ELi0ELin1ELin1EEELin1ENS0_9metric_L2ELb0EEESt14default_deleteIS7_EEERNSt13tuple_elementIXT_ESt5tupleIJDpT0_EEE4typeERSF_(ptr noundef nonnull align 8 dereferenceable(8) %0) #1 comdat {
  %2 = alloca ptr, align 8
  store ptr %0, ptr %2, align 8, !tbaa !132
  %3 = load ptr, ptr %2, align 8, !tbaa !132
  %4 = call noundef nonnull align 1 dereferenceable(1) ptr @_ZSt12__get_helperILm1ESt14default_deleteIN9nanoflann24KDTreeEigenMatrixAdaptorIKN5Eigen6MatrixIdLin1ELin1ELi0ELin1ELin1EEELin1ENS1_9metric_L2ELb0EEEEJEERT0_RSt11_Tuple_implIXT_EJSA_DpT1_EE(ptr noundef nonnull align 1 dereferenceable(1) %3) #28
  ret ptr %4
}

; Function Attrs: mustprogress nounwind ssp uwtable
define linkonce_odr noundef nonnull align 8 dereferenceable(8) ptr @_ZSt12__get_helperILm0EPN9nanoflann24KDTreeEigenMatrixAdaptorIKN5Eigen6MatrixIdLin1ELin1ELi0ELin1ELin1EEELin1ENS0_9metric_L2ELb0EEEJSt14default_deleteIS7_EEERT0_RSt11_Tuple_implIXT_EJSB_DpT1_EE(ptr noundef nonnull align 8 dereferenceable(8) %0) #1 comdat {
  %2 = alloca ptr, align 8
  store ptr %0, ptr %2, align 8, !tbaa !134
  %3 = load ptr, ptr %2, align 8, !tbaa !134
  %4 = call noundef nonnull align 8 dereferenceable(8) ptr @_ZNSt11_Tuple_implILm0EJPN9nanoflann24KDTreeEigenMatrixAdaptorIKN5Eigen6MatrixIdLin1ELin1ELi0ELin1ELin1EEELin1ENS0_9metric_L2ELb0EEESt14default_deleteIS7_EEE7_M_headERSB_(ptr noundef nonnull align 8 dereferenceable(8) %3) #28
  ret ptr %4
}

; Function Attrs: inlinehint mustprogress ssp uwtable
define linkonce_odr void @_ZN5Eigen8internal31conditional_aligned_delete_autoIdLb1EEEvPT_m(ptr noundef %0, i64 noundef %1) #6 comdat {
  %3 = alloca ptr, align 8
  %4 = alloca i64, align 8
  store ptr %0, ptr %3, align 8, !tbaa !76
  store i64 %1, ptr %4, align 8, !tbaa !60
  %5 = load ptr, ptr %3, align 8, !tbaa !76
  call void @_ZN5Eigen8internal24conditional_aligned_freeILb1EEEvPv(ptr noundef %5)
  ret void
}

; Function Attrs: mustprogress nounwind ssp uwtable
define linkonce_odr noundef nonnull align 1 dereferenceable(1) ptr @_ZNSt15__uniq_ptr_implIN9nanoflann24KDTreeEigenMatrixAdaptorIKN5Eigen6MatrixIdLin1ELin1ELi0ELin1ELin1EEELin1ENS0_9metric_L2ELb0EEESt14default_deleteIS7_EE10_M_deleterEv(ptr noundef nonnull align 8 dereferenceable(8) %0) #1 comdat align 2 {
  %2 = alloca ptr, align 8
  store ptr %0, ptr %2, align 8, !tbaa !128
  %3 = load ptr, ptr %2, align 8
  %4 = getelementptr inbounds nuw %"class.std::__uniq_ptr_impl", ptr %3, i32 0, i32 0
  %5 = call noundef nonnull align 1 dereferenceable(1) ptr @_ZSt3getILm1EJPN9nanoflann24KDTreeEigenMatrixAdaptorIKN5Eigen6MatrixIdLin1ELin1ELi0ELin1ELin1EEELin1ENS0_9metric_L2ELb0EEESt14default_deleteIS7_EEERNSt13tuple_elementIXT_ESt5tupleIJDpT0_EEE4typeERSF_(ptr noundef nonnull align 8 dereferenceable(8) %4) #28
  ret ptr %5
}

; Function Attrs: mustprogress nounwind ssp uwtable
define linkonce_odr noundef nonnull align 8 dereferenceable(8) ptr @_ZSt3getILm0EJPN9nanoflann24KDTreeEigenMatrixAdaptorIKN5Eigen6MatrixIdLin1ELin1ELi0ELin1ELin1EEELin1ENS0_9metric_L2ELb0EEESt14default_deleteIS7_EEERNSt13tuple_elementIXT_ESt5tupleIJDpT0_EEE4typeERSF_(ptr noundef nonnull align 8 dereferenceable(8) %0) #1 comdat {
  %2 = alloca ptr, align 8
  store ptr %0, ptr %2, align 8, !tbaa !132
  %3 = load ptr, ptr %2, align 8, !tbaa !132
  %4 = call noundef nonnull align 8 dereferenceable(8) ptr @_ZSt12__get_helperILm0EPN9nanoflann24KDTreeEigenMatrixAdaptorIKN5Eigen6MatrixIdLin1ELin1ELi0ELin1ELin1EEELin1ENS0_9metric_L2ELb0EEEJSt14default_deleteIS7_EEERT0_RSt11_Tuple_implIXT_EJSB_DpT1_EE(ptr noundef nonnull align 8 dereferenceable(8) %3) #28
  ret ptr %4
}

; Function Attrs: mustprogress nounwind ssp uwtable
define linkonce_odr void @_ZN5Eigen12DenseStorageIdLin1ELin1ELin1ELi0EED2Ev(ptr noundef nonnull align 8 dereferenceable(24) %0) unnamed_addr #1 comdat align 2 personality ptr @__gxx_personality_v0 {
  %2 = alloca ptr, align 8
  store ptr %0, ptr %2, align 8, !tbaa !85
  %3 = load ptr, ptr %2, align 8
  %4 = getelementptr inbounds nuw %"class.Eigen::DenseStorage", ptr %3, i32 0, i32 0
  %5 = load ptr, ptr %4, align 8, !tbaa !202
  %6 = getelementptr inbounds nuw %"class.Eigen::DenseStorage", ptr %3, i32 0, i32 1
  %7 = load i64, ptr %6, align 8, !tbaa !89
  %8 = getelementptr inbounds nuw %"class.Eigen::DenseStorage", ptr %3, i32 0, i32 2
  %9 = load i64, ptr %8, align 8, !tbaa !87
  %10 = mul nsw i64 %7, %9
  invoke void @_ZN5Eigen8internal31conditional_aligned_delete_autoIdLb1EEEvPT_m(ptr noundef %5, i64 noundef %10)
          to label %11 unwind label %12

11:                                               ; preds = %1
  ret void

12:                                               ; preds = %1
  %13 = landingpad { ptr, i32 }
          catch ptr null
  %14 = extractvalue { ptr, i32 } %13, 0
  call void @__clang_call_terminate(ptr %14) #29
  unreachable
}

; Function Attrs: noinline noreturn nounwind ssp uwtable
define linkonce_odr hidden void @__clang_call_terminate(ptr noundef %0) #7 comdat {
  %2 = call ptr @__cxa_begin_catch(ptr %0) #28
  call void @_ZSt9terminatev() #29
  unreachable
}

; Function Attrs: mustprogress nounwind ssp uwtable
define linkonce_odr noundef nonnull align 1 dereferenceable(1) ptr @_ZNSt10unique_ptrIN9nanoflann24KDTreeEigenMatrixAdaptorIKN5Eigen6MatrixIdLin1ELin1ELi0ELin1ELin1EEELin1ENS0_9metric_L2ELb0EEESt14default_deleteIS7_EE11get_deleterEv(ptr noundef nonnull align 8 dereferenceable(8) %0) #1 comdat align 2 {
  %2 = alloca ptr, align 8
  store ptr %0, ptr %2, align 8, !tbaa !73
  %3 = load ptr, ptr %2, align 8
  %4 = getelementptr inbounds nuw %"class.std::unique_ptr", ptr %3, i32 0, i32 0
  %5 = call noundef nonnull align 1 dereferenceable(1) ptr @_ZNSt15__uniq_ptr_implIN9nanoflann24KDTreeEigenMatrixAdaptorIKN5Eigen6MatrixIdLin1ELin1ELi0ELin1ELin1EEELin1ENS0_9metric_L2ELb0EEESt14default_deleteIS7_EE10_M_deleterEv(ptr noundef nonnull align 8 dereferenceable(8) %4) #28
  ret ptr %5
}

; Function Attrs: mustprogress nounwind ssp uwtable
define linkonce_odr noundef nonnull align 8 dereferenceable(8) ptr @_ZNSt15__uniq_ptr_implIN9nanoflann24KDTreeEigenMatrixAdaptorIKN5Eigen6MatrixIdLin1ELin1ELi0ELin1ELin1EEELin1ENS0_9metric_L2ELb0EEESt14default_deleteIS7_EE6_M_ptrEv(ptr noundef nonnull align 8 dereferenceable(8) %0) #1 comdat align 2 {
  %2 = alloca ptr, align 8
  store ptr %0, ptr %2, align 8, !tbaa !128
  %3 = load ptr, ptr %2, align 8
  %4 = getelementptr inbounds nuw %"class.std::__uniq_ptr_impl", ptr %3, i32 0, i32 0
  %5 = call noundef nonnull align 8 dereferenceable(8) ptr @_ZSt3getILm0EJPN9nanoflann24KDTreeEigenMatrixAdaptorIKN5Eigen6MatrixIdLin1ELin1ELi0ELin1ELin1EEELin1ENS0_9metric_L2ELb0EEESt14default_deleteIS7_EEERNSt13tuple_elementIXT_ESt5tupleIJDpT0_EEE4typeERSF_(ptr noundef nonnull align 8 dereferenceable(8) %4) #28
  ret ptr %5
}

; Function Attrs: inlinehint mustprogress nounwind ssp uwtable
define linkonce_odr void @_ZN5Eigen15PlainObjectBaseINS_6MatrixIdLin1ELin1ELi0ELin1ELin1EEEED2Ev(ptr noundef nonnull align 8 dereferenceable(24) %0) unnamed_addr #4 comdat align 2 {
  %2 = alloca ptr, align 8
  store ptr %0, ptr %2, align 8, !tbaa !58
  %3 = load ptr, ptr %2, align 8
  %4 = getelementptr inbounds nuw %"class.Eigen::PlainObjectBase", ptr %3, i32 0, i32 0
  call void @_ZN5Eigen12DenseStorageIdLin1ELin1ELin1ELi0EED2Ev(ptr noundef nonnull align 8 dereferenceable(24) %4) #28
  ret void
}

; Function Attrs: mustprogress nounwind ssp uwtable
define linkonce_odr void @_ZNSt10unique_ptrIN9nanoflann24KDTreeEigenMatrixAdaptorIKN5Eigen6MatrixIdLin1ELin1ELi0ELin1ELin1EEELin1ENS0_9metric_L2ELb0EEESt14default_deleteIS7_EED2Ev(ptr noundef nonnull align 8 dereferenceable(8) %0) unnamed_addr #1 comdat align 2 personality ptr @__gxx_personality_v0 {
  %2 = alloca ptr, align 8
  %3 = alloca ptr, align 8
  store ptr %0, ptr %2, align 8, !tbaa !73
  %4 = load ptr, ptr %2, align 8
  call void @llvm.lifetime.start.p0(i64 8, ptr %3) #28
  %5 = getelementptr inbounds nuw %"class.std::unique_ptr", ptr %4, i32 0, i32 0
  %6 = call noundef nonnull align 8 dereferenceable(8) ptr @_ZNSt15__uniq_ptr_implIN9nanoflann24KDTreeEigenMatrixAdaptorIKN5Eigen6MatrixIdLin1ELin1ELi0ELin1ELin1EEELin1ENS0_9metric_L2ELb0EEESt14default_deleteIS7_EE6_M_ptrEv(ptr noundef nonnull align 8 dereferenceable(8) %5) #28
  store ptr %6, ptr %3, align 8, !tbaa !292
  %7 = load ptr, ptr %3, align 8, !tbaa !292
  %8 = load ptr, ptr %7, align 8, !tbaa !130
  %9 = icmp ne ptr %8, null
  br i1 %9, label %10, label %15

10:                                               ; preds = %1
  %11 = call noundef nonnull align 1 dereferenceable(1) ptr @_ZNSt10unique_ptrIN9nanoflann24KDTreeEigenMatrixAdaptorIKN5Eigen6MatrixIdLin1ELin1ELi0ELin1ELin1EEELin1ENS0_9metric_L2ELb0EEESt14default_deleteIS7_EE11get_deleterEv(ptr noundef nonnull align 8 dereferenceable(8) %4) #28
  %12 = load ptr, ptr %3, align 8, !tbaa !292
  %13 = load ptr, ptr %12, align 8, !tbaa !130
  invoke void @_ZNKSt14default_deleteIN9nanoflann24KDTreeEigenMatrixAdaptorIKN5Eigen6MatrixIdLin1ELin1ELi0ELin1ELin1EEELin1ENS0_9metric_L2ELb0EEEEclEPS7_(ptr noundef nonnull align 1 dereferenceable(1) %11, ptr noundef %13)
          to label %14 unwind label %17

14:                                               ; preds = %10
  br label %15

15:                                               ; preds = %14, %1
  %16 = load ptr, ptr %3, align 8, !tbaa !292
  store ptr null, ptr %16, align 8, !tbaa !130
  call void @llvm.lifetime.end.p0(i64 8, ptr %3) #28
  ret void

17:                                               ; preds = %10
  %18 = landingpad { ptr, i32 }
          catch ptr null
  %19 = extractvalue { ptr, i32 } %18, 0
  call void @__clang_call_terminate(ptr %19) #29
  unreachable
}

; Function Attrs: mustprogress nounwind ssp uwtable
define void @_ZN6open3d8geometry11KDTreeFlannD2Ev(ptr noundef nonnull align 8 dereferenceable(32) %0) unnamed_addr #1 align 2 {
  %2 = alloca ptr, align 8
  store ptr %0, ptr %2, align 8, !tbaa !19
  %3 = load ptr, ptr %2, align 8
  %4 = getelementptr inbounds nuw %"class.open3d::geometry::KDTreeFlann", ptr %3, i32 0, i32 1
  call void @_ZNSt10unique_ptrIN9nanoflann24KDTreeEigenMatrixAdaptorIKN5Eigen6MatrixIdLin1ELin1ELi0ELin1ELin1EEELin1ENS0_9metric_L2ELb0EEESt14default_deleteIS7_EED2Ev(ptr noundef nonnull align 8 dereferenceable(8) %4) #28
  %5 = getelementptr inbounds nuw %"class.open3d::geometry::KDTreeFlann", ptr %3, i32 0, i32 0
  call void @_ZN5Eigen15PlainObjectBaseINS_6MatrixIdLin1ELin1ELi0ELin1ELin1EEEED2Ev(ptr noundef nonnull align 8 dereferenceable(24) %5) #28
  ret void
}