; Function Attrs: mustprogress nounwind ssp uwtable
define void @_ZN6open3d8geometry11KDTreeFlannD2Ev(ptr noundef nonnull align 8 dereferenceable(32) %0) unnamed_addr #14 align 2 personality ptr @__gxx_personality_v0 {
  %2 = getelementptr inbounds nuw i8, ptr %0, i64 24
  %3 = load ptr, ptr %2, align 8, !tbaa !32
  %.not.i = icmp eq ptr %3, null
  br i1 %.not.i, label %_ZNSt10unique_ptrIN9nanoflann24KDTreeEigenMatrixAdaptorIKN5Eigen6MatrixIdLin1ELin1ELi0ELin1ELin1EEELin1ENS0_9metric_L2ELb0EEESt14default_deleteIS7_EED2Ev.exit, label %4

4:                                                ; preds = %1
  tail call void @_ZNKSt14default_deleteIN9nanoflann24KDTreeEigenMatrixAdaptorIKN5Eigen6MatrixIdLin1ELin1ELi0ELin1ELin1EEELin1ENS0_9metric_L2ELb0EEEEclEPS7_(ptr noundef nonnull align 8 dereferenceable(8) %2, ptr noundef nonnull %3)
  br label %_ZNSt10unique_ptrIN9nanoflann24KDTreeEigenMatrixAdaptorIKN5Eigen6MatrixIdLin1ELin1ELi0ELin1ELin1EEELin1ENS0_9metric_L2ELb0EEESt14default_deleteIS7_EED2Ev.exit

_ZNSt10unique_ptrIN9nanoflann24KDTreeEigenMatrixAdaptorIKN5Eigen6MatrixIdLin1ELin1ELi0ELin1ELin1EEELin1ENS0_9metric_L2ELb0EEESt14default_deleteIS7_EED2Ev.exit: ; preds = %1, %4
  store ptr null, ptr %2, align 8, !tbaa !32
  %5 = load ptr, ptr %0, align 8, !tbaa !102
  tail call void @free(ptr noundef %5) #30
  ret void
}